; Function Attrs: nounwind uwtable
define ptr @l___private_Lean_Elab_Tactic_BVDecide_Frontend_Normalize_Simproc_0__Lean_Elab_Tactic_BVDecide_Frontend_Normalize_Nat_log2Exact(ptr noundef %0) local_unnamed_addr #0 {
  %2 = ptrtoint ptr %0 to i64
  %3 = and i64 %2, 1
  %.not = icmp eq i64 %3, 0
  br i1 %.not, label %.critedge.i, label %4, !prof !17

4:                                                ; preds = %1
  %5 = icmp eq ptr %0, inttoptr (i64 1 to ptr)
  br label %lean_nat_eq.exit

.critedge.i:                                      ; preds = %1
  %6 = tail call zeroext i1 @lean_nat_big_eq(ptr noundef %0, ptr noundef nonnull inttoptr (i64 1 to ptr)) #5
  br label %lean_nat_eq.exit

lean_nat_eq.exit:                                 ; preds = %4, %.critedge.i
  %.0.i = phi i1 [ %5, %4 ], [ %6, %.critedge.i ]
  %7 = zext i1 %.0.i to i8
  %8 = tail call zeroext i8 @l_instDecidableNot___rarg(i8 noundef zeroext %7) #5
  %9 = icmp eq i8 %8, 0
  br i1 %9, label %lean_dec.exit, label %10

10:                                               ; preds = %lean_nat_eq.exit
  %11 = tail call ptr @lean_nat_log2(ptr noundef %0) #5
  %12 = tail call ptr @lean_nat_pow(ptr noundef nonnull inttoptr (i64 5 to ptr), ptr noundef %11) #5
  %13 = ptrtoint ptr %12 to i64
  %14 = and i64 %13, 1
  %.not25 = icmp eq i64 %14, 0
  br i1 %.not25, label %18, label %15, !prof !17

15:                                               ; preds = %10
  br i1 %.not, label %lean_nat_eq.exit22.thread24, label %lean_nat_eq.exit22.thread, !prof !17

lean_nat_eq.exit22.thread24:                      ; preds = %15
  %16 = tail call zeroext i1 @lean_nat_big_eq(ptr noundef %12, ptr noundef %0) #5
  br i1 %16, label %36, label %26

lean_nat_eq.exit22.thread:                        ; preds = %15
  %17 = icmp eq ptr %12, %0
  br i1 %17, label %36, label %26

18:                                               ; preds = %10
  %19 = tail call zeroext i1 @lean_nat_big_eq(ptr noundef %12, ptr noundef %0) #5
  %20 = load i32, ptr %12, align 4, !tbaa !8
  %21 = icmp sgt i32 %20, 1
  br i1 %21, label %22, label %24, !prof !11

22:                                               ; preds = %18
  %23 = add nsw i32 %20, -1
  store i32 %23, ptr %12, align 4, !tbaa !8
  br i1 %19, label %36, label %26

24:                                               ; preds = %18
  %.not.i = icmp eq i32 %20, 0
  br i1 %.not.i, label %lean_dec.exit17, label %25

25:                                               ; preds = %24
  tail call void @lean_dec_ref_cold(ptr noundef nonnull %12) #5
  br i1 %19, label %36, label %26

lean_dec.exit17:                                  ; preds = %24
  br i1 %19, label %36, label %26

26:                                               ; preds = %25, %22, %lean_nat_eq.exit22.thread24, %lean_nat_eq.exit22.thread, %lean_dec.exit17
  %27 = ptrtoint ptr %11 to i64
  %28 = and i64 %27, 1
  %.not26 = icmp eq i64 %28, 0
  br i1 %.not26, label %29, label %lean_dec.exit

29:                                               ; preds = %26
  %30 = load i32, ptr %11, align 4, !tbaa !8
  %31 = icmp sgt i32 %30, 1
  br i1 %31, label %32, label %34, !prof !11

32:                                               ; preds = %29
  %33 = add nsw i32 %30, -1
  store i32 %33, ptr %11, align 4, !tbaa !8
  br label %lean_dec.exit

34:                                               ; preds = %29
  %.not.i18 = icmp eq i32 %30, 0
  br i1 %.not.i18, label %lean_dec.exit, label %35

35:                                               ; preds = %34
  tail call void @lean_dec_ref_cold(ptr noundef nonnull %11) #5
  br label %lean_dec.exit

36:                                               ; preds = %25, %22, %lean_nat_eq.exit22.thread24, %lean_nat_eq.exit22.thread, %lean_dec.exit17
  tail call void @lean_inc_heartbeat() #5
  %37 = tail call noalias ptr @mi_malloc_small(i64 noundef 16) #5
  %38 = icmp eq ptr %37, null
  br i1 %38, label %39, label %lean_alloc_ctor.exit

39:                                               ; preds = %36
  tail call void @lean_internal_panic_out_of_memory() #6
  unreachable

lean_alloc_ctor.exit:                             ; preds = %36
  %40 = getelementptr inbounds nuw i8, ptr %37, i64 4
  store i32 1, ptr %37, align 4, !tbaa !8
  store i32 16842768, ptr %40, align 4
  %41 = getelementptr inbounds nuw i8, ptr %37, i64 8
  store ptr %11, ptr %41, align 8, !tbaa !4
  br label %lean_dec.exit

lean_dec.exit:                                    ; preds = %26, %32, %34, %35, %lean_nat_eq.exit, %lean_alloc_ctor.exit
  %.0 = phi ptr [ %37, %lean_alloc_ctor.exit ], [ inttoptr (i64 1 to ptr), %lean_nat_eq.exit ], [ inttoptr (i64 1 to ptr), %35 ], [ inttoptr (i64 1 to ptr), %34 ], [ inttoptr (i64 1 to ptr), %32 ], [ inttoptr (i64 1 to ptr), %26 ]
  ret ptr %.0
}